target datalayout = "e-m:e-p270:32:32-p271:32:32-p272:64:64-i64:64-i128:128-f80:128-n8:16:32:64-S128"
target triple = "x86_64-pc-linux-gnu"

%struct.darktable_t = type { %struct.dt_codepath_t, i32, i32, ptr, ptr, ptr, ptr, ptr, ptr, ptr, ptr, ptr, ptr, ptr, ptr, ptr, ptr, ptr, ptr, ptr, ptr, ptr, ptr, ptr, ptr, ptr, ptr, ptr, ptr, ptr, [64 x %struct.dt_pthread_mutex_t], %struct.dt_pthread_mutex_t, %struct.dt_pthread_mutex_t, %struct.dt_pthread_mutex_t, %struct.dt_pthread_mutex_t, %struct.dt_pthread_mutex_t, ptr, ptr, ptr, ptr, ptr, ptr, ptr, ptr, ptr, ptr, ptr, ptr, ptr, %struct.dt_lua_state_t, ptr, double, ptr, i32, [47 x i32], i32, i32, ptr, ptr, %struct.dt_sys_resources_t, %struct.dt_backthumb_t, %struct.dt_gimp_t }
%struct.dt_codepath_t = type { i8, [3 x i8] }
%struct.dt_pthread_mutex_t = type { %union.pthread_mutex_t }
%union.pthread_mutex_t = type { %struct.__pthread_mutex_s }
%struct.__pthread_mutex_s = type { i32, i32, i32, i32, i32, i16, i16, %struct.__pthread_internal_list }
%struct.__pthread_internal_list = type { ptr, ptr }
%struct.dt_lua_state_t = type { i32 }
%struct.dt_sys_resources_t = type { i64, i64, ptr, ptr, i32 }
%struct.dt_backthumb_t = type { double, double, i32, i32, i32, i32 }
%struct.dt_gimp_t = type { i32, ptr, ptr, i32, i32 }
%struct.dt_dev_histogram_stats_t = type { i32, i64, i32, i32 }
%struct.dt_iop_module_t = type { i32, ptr, ptr, ptr, ptr, ptr, ptr, ptr, ptr, ptr, ptr, ptr, ptr, ptr, ptr, ptr, ptr, ptr, ptr, ptr, ptr, ptr, ptr, ptr, ptr, ptr, ptr, ptr, ptr, ptr, ptr, ptr, ptr, ptr, ptr, ptr, ptr, ptr, ptr, ptr, ptr, ptr, ptr, ptr, ptr, ptr, ptr, ptr, ptr, ptr, ptr, ptr, ptr, ptr, ptr, ptr, ptr, [20 x i8], i32, i32, i32, i32, i32, i32, i32, [8 x i8], [4 x float], [4 x float], [4 x float], [4 x float], [4 x float], [4 x float], ptr, %struct.dt_dev_histogram_stats_t, [4 x i32], i32, i32, ptr, i32, i32, ptr, ptr, i32, ptr, %struct.dt_pthread_mutex_t, ptr, ptr, ptr, ptr, %struct.anon.1, ptr, ptr, ptr, ptr, ptr, ptr, ptr, i32, ptr, ptr, ptr, ptr, ptr, ptr, ptr, i32, ptr, i32, [128 x i8], i32, ptr, ptr, i32, [12 x i8] }
%struct.anon.1 = type { %struct.anon.2, %struct.anon.3 }
%struct.anon.2 = type { ptr, ptr }
%struct.anon.3 = type { ptr, i32 }
%struct.dt_iop_lut3d_gui_data_t = type { ptr, ptr, ptr, ptr, ptr, ptr, ptr, i64 }
%struct.dt_gui_gtk_t = type { ptr, %struct.dt_gui_widgets_t, %struct.dt_gui_scrollbars_t, i32, ptr, i32, [39 x %struct._GdkRGBA], i32, i32, i32, i32, i32, double, double, double, double, ptr, double, double, double, double, i32, i32, [4096 x i8], i32, i32, i32, %struct.dt_pthread_mutex_t }
%struct.dt_gui_widgets_t = type { ptr, ptr, ptr, ptr, i32, i32, i32 }
%struct.dt_gui_scrollbars_t = type { ptr, ptr, i32 }
%struct._GdkRGBA = type { double, double, double, double }

@invalid_filepath_prefix = hidden constant [12 x i8] c"INVALID >> \00", align 1
@darktable = external global %struct.darktable_t, align 8

; Function Attrs: nounwind uwtable
define internal void @show_hide_controls(ptr noundef %0) #0 {
  %2 = alloca ptr, align 8
  %3 = alloca ptr, align 8
  %4 = alloca ptr, align 8
  %5 = alloca i32, align 4
  %6 = alloca i32, align 4
  store ptr %0, ptr %2, align 8, !tbaa !6
  call void @llvm.lifetime.start.p0(i64 8, ptr %3) #13
  %7 = load ptr, ptr %2, align 8, !tbaa !6
  %8 = getelementptr inbounds nuw %struct.dt_iop_module_t, ptr %7, i32 0, i32 83
  %9 = load ptr, ptr %8, align 16, !tbaa !178
  store ptr %9, ptr %3, align 8, !tbaa !166
  call void @llvm.lifetime.start.p0(i64 8, ptr %4) #13
  %10 = load ptr, ptr %3, align 8, !tbaa !166
  %11 = getelementptr inbounds nuw %struct.dt_iop_lut3d_gui_data_t, ptr %10, i32 0, i32 5
  %12 = load ptr, ptr %11, align 8, !tbaa !168
  %13 = call ptr @gtk_tree_view_get_model(ptr noundef %12)
  store ptr %13, ptr %4, align 8, !tbaa !170
  call void @llvm.lifetime.start.p0(i64 4, ptr %5) #13
  %14 = load ptr, ptr %4, align 8, !tbaa !170
  %15 = call i32 @gtk_tree_model_iter_n_children(ptr noundef %14, ptr noundef null)
  store i32 %15, ptr %5, align 4, !tbaa !16
  %16 = load i32, ptr %5, align 4, !tbaa !16
  %17 = icmp sgt i32 %16, 1
  br i1 %17, label %28, label %18

18:                                               ; preds = %1
  %19 = load i32, ptr %5, align 4, !tbaa !16
  %20 = icmp sgt i32 %19, 0
  br i1 %20, label %21, label %63

21:                                               ; preds = %18
  %22 = load ptr, ptr %3, align 8, !tbaa !166
  %23 = getelementptr inbounds nuw %struct.dt_iop_lut3d_gui_data_t, ptr %22, i32 0, i32 1
  %24 = load ptr, ptr %23, align 8, !tbaa !181
  %25 = call ptr @dt_bauhaus_combobox_get_text(ptr noundef %24)
  %26 = call i32 @g_str_has_prefix(ptr noundef %25, ptr noundef @invalid_filepath_prefix)
  %27 = icmp ne i32 %26, 0
  br i1 %27, label %28, label %63

28:                                               ; preds = %21, %1
  call void @llvm.lifetime.start.p0(i64 4, ptr %6) #13
  %29 = load i32, ptr %5, align 4, !tbaa !16
  %30 = add nsw i32 %29, 1
  %31 = mul nsw i32 20, %30
  %32 = icmp sgt i32 %31, 200
  br i1 %32, label %33, label %34

33:                                               ; preds = %28
  br label %37

34:                                               ; preds = %28
  %35 = load i32, ptr %5, align 4, !tbaa !16
  %36 = mul nsw i32 20, %35
  br label %37

37:                                               ; preds = %34, %33
  %38 = phi i32 [ 200, %33 ], [ %36, %34 ]
  store i32 %38, ptr %6, align 4, !tbaa !16
  %39 = load i32, ptr %5, align 4, !tbaa !16
  %40 = icmp sgt i32 %39, 100
  br i1 %40, label %41, label %45

41:                                               ; preds = %37
  %42 = load ptr, ptr %3, align 8, !tbaa !166
  %43 = getelementptr inbounds nuw %struct.dt_iop_lut3d_gui_data_t, ptr %42, i32 0, i32 4
  %44 = load ptr, ptr %43, align 8, !tbaa !188
  call void @gtk_widget_set_visible(ptr noundef %44, i32 noundef 1)
  br label %49

45:                                               ; preds = %37
  %46 = load ptr, ptr %3, align 8, !tbaa !166
  %47 = getelementptr inbounds nuw %struct.dt_iop_lut3d_gui_data_t, ptr %46, i32 0, i32 4
  %48 = load ptr, ptr %47, align 8, !tbaa !188
  call void @gtk_widget_set_visible(ptr noundef %48, i32 noundef 0)
  br label %49

49:                                               ; preds = %45, %41
  %50 = load ptr, ptr %3, align 8, !tbaa !166
  %51 = getelementptr inbounds nuw %struct.dt_iop_lut3d_gui_data_t, ptr %50, i32 0, i32 6
  %52 = load ptr, ptr %51, align 8, !tbaa !189
  call void @gtk_widget_set_visible(ptr noundef %52, i32 noundef 1)
  %53 = load ptr, ptr %3, align 8, !tbaa !166
  %54 = getelementptr inbounds nuw %struct.dt_iop_lut3d_gui_data_t, ptr %53, i32 0, i32 6
  %55 = load ptr, ptr %54, align 8, !tbaa !189
  %56 = load i32, ptr %6, align 4, !tbaa !16
  %57 = sitofp i32 %56 to double
  %58 = load ptr, ptr getelementptr inbounds nuw (%struct.darktable_t, ptr @darktable, i32 0, i32 14), align 8, !tbaa !190
  %59 = getelementptr inbounds nuw %struct.dt_gui_gtk_t, ptr %58, i32 0, i32 18
  %60 = load double, ptr %59, align 8, !tbaa !191
  %61 = fmul reassoc nsz arcp contract afn double %57, %60
  %62 = fptosi double %61 to i32
  call void @gtk_scrolled_window_set_min_content_height(ptr noundef %55, i32 noundef %62)
  call void @llvm.lifetime.end.p0(i64 4, ptr %6) #13
  br label %70

63:                                               ; preds = %21, %18
  %64 = load ptr, ptr %3, align 8, !tbaa !166
  %65 = getelementptr inbounds nuw %struct.dt_iop_lut3d_gui_data_t, ptr %64, i32 0, i32 4
  %66 = load ptr, ptr %65, align 8, !tbaa !188
  call void @gtk_widget_set_visible(ptr noundef %66, i32 noundef 0)
  %67 = load ptr, ptr %3, align 8, !tbaa !166
  %68 = getelementptr inbounds nuw %struct.dt_iop_lut3d_gui_data_t, ptr %67, i32 0, i32 6
  %69 = load ptr, ptr %68, align 8, !tbaa !189
  call void @gtk_widget_set_visible(ptr noundef %69, i32 noundef 0)
  br label %70

70:                                               ; preds = %63, %49
  call void @llvm.lifetime.end.p0(i64 4, ptr %5) #13
  call void @llvm.lifetime.end.p0(i64 8, ptr %4) #13
  call void @llvm.lifetime.end.p0(i64 8, ptr %3) #13
  ret void
}