; Function Attrs: nounwind uwtable
define internal fastcc void @show_hide_controls(ptr readonly captures(none) %.704.val) unnamed_addr #1 {
  %1 = getelementptr inbounds nuw i8, ptr %.704.val, i64 40
  %2 = load ptr, ptr %1, align 8, !tbaa !133
  %3 = tail call ptr @gtk_tree_view_get_model(ptr noundef %2) #25
  %4 = tail call i32 @gtk_tree_model_iter_n_children(ptr noundef %3, ptr noundef null) #25
  %5 = icmp sgt i32 %4, 1
  br i1 %5, label %13, label %6

6:                                                ; preds = %0
  %7 = icmp eq i32 %4, 1
  br i1 %7, label %8, label %31

8:                                                ; preds = %6
  %9 = getelementptr inbounds nuw i8, ptr %.704.val, i64 8
  %10 = load ptr, ptr %9, align 8, !tbaa !140
  %11 = tail call ptr @dt_bauhaus_combobox_get_text(ptr noundef %10) #25
  %12 = tail call i32 @g_str_has_prefix(ptr noundef %11, ptr noundef nonnull @invalid_filepath_prefix) #25
  %.not = icmp eq i32 %12, 0
  br i1 %.not, label %31, label %.thread

13:                                               ; preds = %0
  %14 = mul i32 %4, 20
  %15 = add i32 %14, 20
  %16 = icmp sgt i32 %15, 200
  %17 = select i1 %16, i32 200, i32 %14
  %18 = icmp samesign ugt i32 %4, 100
  %spec.select = zext i1 %18 to i32
  %19 = sitofp i32 %17 to double
  br label %.thread

.thread:                                          ; preds = %13, %8
  %.sink1 = phi i32 [ 0, %8 ], [ %spec.select, %13 ]
  %20 = phi double [ 2.000000e+01, %8 ], [ %19, %13 ]
  %21 = getelementptr inbounds nuw i8, ptr %.704.val, i64 32
  %22 = load ptr, ptr %21, align 8, !tbaa !150
  tail call void @gtk_widget_set_visible(ptr noundef %22, i32 noundef %.sink1) #25
  %23 = getelementptr inbounds nuw i8, ptr %.704.val, i64 48
  %24 = load ptr, ptr %23, align 8, !tbaa !151
  tail call void @gtk_widget_set_visible(ptr noundef %24, i32 noundef 1) #25
  %25 = load ptr, ptr %23, align 8, !tbaa !151
  %26 = load ptr, ptr getelementptr inbounds nuw (i8, ptr @darktable, i64 104), align 8, !tbaa !152
  %27 = getelementptr inbounds nuw i8, ptr %26, i64 1424
  %28 = load double, ptr %27, align 8, !tbaa !153
  %29 = fmul reassoc nsz arcp contract afn double %28, %20
  %30 = fptosi double %29 to i32
  tail call void @gtk_scrolled_window_set_min_content_height(ptr noundef %25, i32 noundef %30) #25
  br label %36

31:                                               ; preds = %8, %6
  %32 = getelementptr inbounds nuw i8, ptr %.704.val, i64 32
  %33 = load ptr, ptr %32, align 8, !tbaa !150
  tail call void @gtk_widget_set_visible(ptr noundef %33, i32 noundef 0) #25
  %34 = getelementptr inbounds nuw i8, ptr %.704.val, i64 48
  %35 = load ptr, ptr %34, align 8, !tbaa !151
  tail call void @gtk_widget_set_visible(ptr noundef %35, i32 noundef 0) #25
  br label %36

36:                                               ; preds = %31, %.thread
  ret void
}